target datalayout = "e-m:e-p270:32:32-p271:32:32-p272:64:64-i64:64-i128:128-f80:128-n8:16:32:64-S128"
target triple = "x86_64-pc-linux-gnu"

%class.btMatrix3x3 = type { [3 x %class.btVector3] }
%class.btVector3 = type { [4 x float] }
%"class.btInverseDynamicsBullet3::vec3" = type { %class.btVector3 }

; Function Attrs: inlinehint mustprogress nounwind uwtable
define linkonce_odr dso_local noundef ptr @_ZN9btVector3cvPfEv(ptr noundef nonnull align 4 dereferenceable(16) %0) #4 comdat align 2 {
  %2 = alloca ptr, align 8
  store ptr %0, ptr %2, align 8, !tbaa !52
  %3 = load ptr, ptr %2, align 8
  %4 = getelementptr inbounds nuw %class.btVector3, ptr %3, i32 0, i32 0
  %5 = getelementptr inbounds [4 x float], ptr %4, i64 0, i64 0
  ret ptr %5
}

; Function Attrs: inlinehint mustprogress nounwind uwtable
define linkonce_odr dso_local noundef ptr @_ZNK9btVector3cvPKfEv(ptr noundef nonnull align 4 dereferenceable(16) %0) #4 comdat align 2 {
  %2 = alloca ptr, align 8
  store ptr %0, ptr %2, align 8, !tbaa !52
  %3 = load ptr, ptr %2, align 8
  %4 = getelementptr inbounds nuw %class.btVector3, ptr %3, i32 0, i32 0
  %5 = getelementptr inbounds [4 x float], ptr %4, i64 0, i64 0
  ret ptr %5
}

; Function Attrs: inlinehint mustprogress nounwind uwtable
define linkonce_odr dso_local noundef nonnull align 4 dereferenceable(16) ptr @_ZNK11btMatrix3x3ixEi(ptr noundef nonnull align 4 dereferenceable(48) %0, i32 noundef %1) #4 comdat align 2 {
  %3 = alloca ptr, align 8
  %4 = alloca i32, align 4
  store ptr %0, ptr %3, align 8, !tbaa !57
  store i32 %1, ptr %4, align 4, !tbaa !9
  %5 = load ptr, ptr %3, align 8
  %6 = getelementptr inbounds nuw %class.btMatrix3x3, ptr %5, i32 0, i32 0
  %7 = load i32, ptr %4, align 4, !tbaa !9
  %8 = sext i32 %7 to i64
  %9 = getelementptr inbounds [3 x %class.btVector3], ptr %6, i64 0, i64 %8
  ret ptr %9
}

; Function Attrs: inlinehint mustprogress nounwind uwtable
define linkonce_odr dso_local void @_ZN9btVector3C2Ev(ptr noundef nonnull align 4 dereferenceable(16) %0) unnamed_addr #4 comdat align 2 {
  %2 = alloca ptr, align 8
  store ptr %0, ptr %2, align 8, !tbaa !52
  ret void
}

; Function Attrs: inlinehint mustprogress nounwind uwtable
define linkonce_odr dso_local noundef float @_Z5btSinf(float noundef %0) #4 comdat {
  %2 = alloca float, align 4
  store float %0, ptr %2, align 4, !tbaa !14
  %3 = load float, ptr %2, align 4, !tbaa !14
  %4 = call float @sinf(float noundef %3) #10, !tbaa !9
  ret float %4
}

; Function Attrs: inlinehint mustprogress nounwind uwtable
define linkonce_odr dso_local noundef float @_Z5btCosf(float noundef %0) #4 comdat {
  %2 = alloca float, align 4
  store float %0, ptr %2, align 4, !tbaa !14
  %3 = load float, ptr %2, align 4, !tbaa !14
  %4 = call float @cosf(float noundef %3) #10, !tbaa !9
  ret float %4
}

; Function Attrs: mustprogress uwtable
define linkonce_odr dso_local noundef nonnull align 4 dereferenceable(4) ptr @_ZN24btInverseDynamicsBullet34vec3clEi(ptr noundef nonnull align 4 dereferenceable(16) %0, i32 noundef %1) #2 comdat align 2 {
  %3 = alloca ptr, align 8
  %4 = alloca i32, align 4
  store ptr %0, ptr %3, align 8, !tbaa !12
  store i32 %1, ptr %4, align 4, !tbaa !9
  %5 = load ptr, ptr %3, align 8
  %6 = call noundef ptr @_ZN9btVector3cvPfEv(ptr noundef nonnull align 4 dereferenceable(16) %5)
  %7 = load i32, ptr %4, align 4, !tbaa !9
  %8 = sext i32 %7 to i64
  %9 = getelementptr inbounds float, ptr %6, i64 %8
  ret ptr %9
}

; Function Attrs: inlinehint mustprogress nounwind uwtable
define linkonce_odr dso_local noundef float @_Z7btAtan2ff(float noundef %0, float noundef %1) #4 comdat {
  %3 = alloca float, align 4
  %4 = alloca float, align 4
  store float %0, ptr %3, align 4, !tbaa !14
  store float %1, ptr %4, align 4, !tbaa !14
  %5 = load float, ptr %3, align 4, !tbaa !14
  %6 = load float, ptr %4, align 4, !tbaa !14
  %7 = call float @atan2f(float noundef %5, float noundef %6) #10, !tbaa !9
  ret float %7
}

; Function Attrs: mustprogress uwtable
define linkonce_odr dso_local noundef nonnull align 4 dereferenceable(4) ptr @_ZNK24btInverseDynamicsBullet35mat33clEii(ptr noundef nonnull align 4 dereferenceable(48) %0, i32 noundef %1, i32 noundef %2) #2 comdat align 2 {
  %4 = alloca ptr, align 8
  %5 = alloca i32, align 4
  %6 = alloca i32, align 4
  store ptr %0, ptr %4, align 8, !tbaa !22
  store i32 %1, ptr %5, align 4, !tbaa !9
  store i32 %2, ptr %6, align 4, !tbaa !9
  %7 = load ptr, ptr %4, align 8
  %8 = load i32, ptr %5, align 4, !tbaa !9
  %9 = call noundef nonnull align 4 dereferenceable(16) ptr @_ZNK11btMatrix3x3ixEi(ptr noundef nonnull align 4 dereferenceable(48) %7, i32 noundef %8)
  %10 = call noundef ptr @_ZNK9btVector3cvPKfEv(ptr noundef nonnull align 4 dereferenceable(16) %9)
  %11 = load i32, ptr %6, align 4, !tbaa !9
  %12 = sext i32 %11 to i64
  %13 = getelementptr inbounds float, ptr %10, i64 %12
  ret ptr %13
}

; Function Attrs: mustprogress nounwind uwtable
define linkonce_odr dso_local void @_ZN24btInverseDynamicsBullet34vec3C2Ev(ptr noundef nonnull align 4 dereferenceable(16) %0) unnamed_addr #1 comdat align 2 {
  %2 = alloca ptr, align 8
  store ptr %0, ptr %2, align 8, !tbaa !12
  %3 = load ptr, ptr %2, align 8
  call void @_ZN9btVector3C2Ev(ptr noundef nonnull align 4 dereferenceable(16) %3)
  ret void
}

; Function Attrs: mustprogress uwtable
define dso_local { <2 x float>, <2 x float> } @_ZN24btInverseDynamicsBullet313rpyFromMatrixERKNS_5mat33E(ptr noundef nonnull align 4 dereferenceable(48) %0) #2 {
  %2 = alloca %"class.btInverseDynamicsBullet3::vec3", align 4
  %3 = alloca ptr, align 8
  store ptr %0, ptr %3, align 8, !tbaa !22
  call void @_ZN24btInverseDynamicsBullet34vec3C2Ev(ptr noundef nonnull align 4 dereferenceable(16) %2)
  %4 = load ptr, ptr %3, align 8, !tbaa !22
  %5 = call noundef nonnull align 4 dereferenceable(4) ptr @_ZNK24btInverseDynamicsBullet35mat33clEii(ptr noundef nonnull align 4 dereferenceable(48) %4, i32 noundef 1, i32 noundef 0)
  %6 = load float, ptr %5, align 4, !tbaa !14
  %7 = fneg float %6
  %8 = load ptr, ptr %3, align 8, !tbaa !22
  %9 = call noundef nonnull align 4 dereferenceable(4) ptr @_ZNK24btInverseDynamicsBullet35mat33clEii(ptr noundef nonnull align 4 dereferenceable(48) %8, i32 noundef 0, i32 noundef 0)
  %10 = load float, ptr %9, align 4, !tbaa !14
  %11 = call noundef float @_Z7btAtan2ff(float noundef %7, float noundef %10)
  %12 = call noundef nonnull align 4 dereferenceable(4) ptr @_ZN24btInverseDynamicsBullet34vec3clEi(ptr noundef nonnull align 4 dereferenceable(16) %2, i32 noundef 2)
  store float %11, ptr %12, align 4, !tbaa !14
  %13 = load ptr, ptr %3, align 8, !tbaa !22
  %14 = call noundef nonnull align 4 dereferenceable(4) ptr @_ZNK24btInverseDynamicsBullet35mat33clEii(ptr noundef nonnull align 4 dereferenceable(48) %13, i32 noundef 2, i32 noundef 0)
  %15 = load float, ptr %14, align 4, !tbaa !14
  %16 = fneg float %15
  %17 = load ptr, ptr %3, align 8, !tbaa !22
  %18 = call noundef nonnull align 4 dereferenceable(4) ptr @_ZNK24btInverseDynamicsBullet35mat33clEii(ptr noundef nonnull align 4 dereferenceable(48) %17, i32 noundef 2, i32 noundef 2)
  %19 = load float, ptr %18, align 4, !tbaa !14
  %20 = call noundef float @_Z7btAtan2ff(float noundef %16, float noundef %19)
  %21 = call noundef nonnull align 4 dereferenceable(4) ptr @_ZN24btInverseDynamicsBullet34vec3clEi(ptr noundef nonnull align 4 dereferenceable(16) %2, i32 noundef 0)
  store float %20, ptr %21, align 4, !tbaa !14
  %22 = load ptr, ptr %3, align 8, !tbaa !22
  %23 = call noundef nonnull align 4 dereferenceable(4) ptr @_ZNK24btInverseDynamicsBullet35mat33clEii(ptr noundef nonnull align 4 dereferenceable(48) %22, i32 noundef 2, i32 noundef 0)
  %24 = load float, ptr %23, align 4, !tbaa !14
  %25 = call noundef nonnull align 4 dereferenceable(4) ptr @_ZN24btInverseDynamicsBullet34vec3clEi(ptr noundef nonnull align 4 dereferenceable(16) %2, i32 noundef 2)
  %26 = load float, ptr %25, align 4, !tbaa !14
  %27 = call noundef float @_Z5btCosf(float noundef %26)
  %28 = load ptr, ptr %3, align 8, !tbaa !22
  %29 = call noundef nonnull align 4 dereferenceable(4) ptr @_ZNK24btInverseDynamicsBullet35mat33clEii(ptr noundef nonnull align 4 dereferenceable(48) %28, i32 noundef 0, i32 noundef 0)
  %30 = load float, ptr %29, align 4, !tbaa !14
  %31 = call noundef nonnull align 4 dereferenceable(4) ptr @_ZN24btInverseDynamicsBullet34vec3clEi(ptr noundef nonnull align 4 dereferenceable(16) %2, i32 noundef 0)
  %32 = load float, ptr %31, align 4, !tbaa !14
  %33 = call noundef float @_Z5btSinf(float noundef %32)
  %34 = load ptr, ptr %3, align 8, !tbaa !22
  %35 = call noundef nonnull align 4 dereferenceable(4) ptr @_ZNK24btInverseDynamicsBullet35mat33clEii(ptr noundef nonnull align 4 dereferenceable(48) %34, i32 noundef 1, i32 noundef 0)
  %36 = load float, ptr %35, align 4, !tbaa !14
  %37 = fmul float %33, %36
  %38 = fneg float %37
  %39 = call float @llvm.fmuladd.f32(float %27, float %30, float %38)
  %40 = call noundef float @_Z7btAtan2ff(float noundef %24, float noundef %39)
  %41 = call noundef nonnull align 4 dereferenceable(4) ptr @_ZN24btInverseDynamicsBullet34vec3clEi(ptr noundef nonnull align 4 dereferenceable(16) %2, i32 noundef 1)
  store float %40, ptr %41, align 4, !tbaa !14
  %42 = getelementptr inbounds nuw %"class.btInverseDynamicsBullet3::vec3", ptr %2, i32 0, i32 0
  %43 = getelementptr inbounds nuw %class.btVector3, ptr %42, i32 0, i32 0
  %44 = load { <2 x float>, <2 x float> }, ptr %43, align 4
  ret { <2 x float>, <2 x float> } %44
}