; Function Attrs: mustprogress nofree nounwind willreturn memory(write, argmem: readwrite) uwtable
define dso_local { <2 x float>, <2 x float> } @_ZN24btInverseDynamicsBullet313rpyFromMatrixERKNS_5mat33E(ptr noundef nonnull readonly align 4 captures(none) dereferenceable(48) %0) local_unnamed_addr #9 {
  %2 = getelementptr inbounds nuw i8, ptr %0, i64 16
  %3 = load float, ptr %2, align 4, !tbaa !4
  %4 = fneg float %3
  %5 = load float, ptr %0, align 4, !tbaa !4
  %6 = tail call noundef float @atan2f(float noundef %4, float noundef %5) #14, !tbaa !32
  %.sroa.4.8.vec.insert = insertelement <2 x float> <float poison, float undef>, float %6, i64 0
  %7 = getelementptr inbounds nuw i8, ptr %0, i64 32
  %8 = load float, ptr %7, align 4, !tbaa !4
  %9 = fneg float %8
  %10 = getelementptr inbounds nuw i8, ptr %0, i64 40
  %11 = load float, ptr %10, align 4, !tbaa !4
  %12 = tail call noundef float @atan2f(float noundef %9, float noundef %11) #14, !tbaa !32
  %.sroa.0.0.vec.insert = insertelement <2 x float> poison, float %12, i64 0
  %13 = tail call noundef float @cosf(float noundef %6) #14, !tbaa !32
  %14 = tail call noundef float @sinf(float noundef %12) #14, !tbaa !32
  %15 = fmul float %14, %4
  %16 = tail call float @llvm.fmuladd.f32(float %13, float %5, float %15)
  %17 = tail call noundef float @atan2f(float noundef %8, float noundef %16) #14, !tbaa !32
  %.sroa.0.4.vec.insert = insertelement <2 x float> %.sroa.0.0.vec.insert, float %17, i64 1
  %.fca.0.insert = insertvalue { <2 x float>, <2 x float> } poison, <2 x float> %.sroa.0.4.vec.insert, 0
  %.fca.1.insert = insertvalue { <2 x float>, <2 x float> } %.fca.0.insert, <2 x float> %.sroa.4.8.vec.insert, 1
  ret { <2 x float>, <2 x float> } %.fca.1.insert
}